target datalayout = "e-m:e-p270:32:32-p271:32:32-p272:64:64-i64:64-i128:128-f80:128-n8:16:32:64-S128"
target triple = "x86_64-pc-linux-gnu"

%class.TimerGroup = type { %"class.std::vector", %"class.std::__cxx11::basic_string" }
%"class.std::vector" = type { %"struct.std::_Vector_base" }
%"struct.std::_Vector_base" = type { %"struct.std::_Vector_base<Timer, std::allocator<Timer>>::_Vector_impl" }
%"struct.std::_Vector_base<Timer, std::allocator<Timer>>::_Vector_impl" = type { %"struct.std::_Vector_base<Timer, std::allocator<Timer>>::_Vector_impl_data" }
%"struct.std::_Vector_base<Timer, std::allocator<Timer>>::_Vector_impl_data" = type { ptr, ptr, ptr }
%"class.std::__cxx11::basic_string" = type { %"struct.std::__cxx11::basic_string<char>::_Alloc_hider", i64, %union.anon }
%"struct.std::__cxx11::basic_string<char>::_Alloc_hider" = type { ptr }
%union.anon = type { i64, [8 x i8] }
%class.Timer = type { %"class.std::__cxx11::basic_string", i32, i64, i64, %"class.std::chrono::time_point", i64 }
%"class.std::chrono::time_point" = type { %"class.std::chrono::duration" }
%"class.std::chrono::duration" = type { i64 }

; Function Attrs: mustprogress nounwind uwtable
define linkonce_odr noundef nonnull align 8 dereferenceable(72) ptr @_ZNKSt6vectorI5TimerSaIS0_EEixEm(ptr noundef nonnull align 8 dereferenceable(24) %0, i64 noundef %1) #5 comdat align 2 {
  %3 = alloca ptr, align 8
  %4 = alloca i64, align 8
  store ptr %0, ptr %3, align 8
  store i64 %1, ptr %4, align 8
  %5 = load ptr, ptr %3, align 8
  %6 = getelementptr inbounds nuw %"struct.std::_Vector_base", ptr %5, i32 0, i32 0
  %7 = getelementptr inbounds nuw %"struct.std::_Vector_base<Timer, std::allocator<Timer>>::_Vector_impl_data", ptr %6, i32 0, i32 0
  %8 = load ptr, ptr %7, align 8
  %9 = load i64, ptr %4, align 8
  %10 = getelementptr inbounds %class.Timer, ptr %8, i64 %9
  ret ptr %10
}

; Function Attrs: mustprogress nounwind uwtable
define linkonce_odr noundef i64 @_ZNKSt6vectorI5TimerSaIS0_EE4sizeEv(ptr noundef nonnull align 8 dereferenceable(24) %0) #5 comdat align 2 {
  %2 = alloca ptr, align 8
  store ptr %0, ptr %2, align 8
  %3 = load ptr, ptr %2, align 8
  %4 = getelementptr inbounds nuw %"struct.std::_Vector_base", ptr %3, i32 0, i32 0
  %5 = getelementptr inbounds nuw %"struct.std::_Vector_base<Timer, std::allocator<Timer>>::_Vector_impl_data", ptr %4, i32 0, i32 1
  %6 = load ptr, ptr %5, align 8
  %7 = getelementptr inbounds nuw %"struct.std::_Vector_base", ptr %3, i32 0, i32 0
  %8 = getelementptr inbounds nuw %"struct.std::_Vector_base<Timer, std::allocator<Timer>>::_Vector_impl_data", ptr %7, i32 0, i32 0
  %9 = load ptr, ptr %8, align 8
  %10 = ptrtoint ptr %6 to i64
  %11 = ptrtoint ptr %9 to i64
  %12 = sub i64 %10, %11
  %13 = sdiv exact i64 %12, 72
  ret i64 %13
}

; Function Attrs: mustprogress uwtable
define noundef zeroext i1 @_ZNK10TimerGroup4UsedEv(ptr noundef nonnull align 8 dereferenceable(56) %0) #4 align 2 {
  %2 = alloca i1, align 1
  %3 = alloca ptr, align 8
  %4 = alloca i32, align 4
  store ptr %0, ptr %3, align 8
  %5 = load ptr, ptr %3, align 8
  store i32 0, ptr %4, align 4
  br label %6

6:                                                ; preds = %20, %1
  %7 = load i32, ptr %4, align 4
  %8 = zext i32 %7 to i64
  %9 = getelementptr inbounds nuw %class.TimerGroup, ptr %5, i32 0, i32 0
  %10 = call noundef i64 @_ZNKSt6vectorI5TimerSaIS0_EE4sizeEv(ptr noundef nonnull align 8 dereferenceable(24) %9) #3
  %11 = icmp ult i64 %8, %10
  br i1 %11, label %12, label %23

12:                                               ; preds = %6
  %13 = getelementptr inbounds nuw %class.TimerGroup, ptr %5, i32 0, i32 0
  %14 = load i32, ptr %4, align 4
  %15 = zext i32 %14 to i64
  %16 = call noundef nonnull align 8 dereferenceable(72) ptr @_ZNKSt6vectorI5TimerSaIS0_EEixEm(ptr noundef nonnull align 8 dereferenceable(24) %13, i64 noundef %15) #3
  %17 = call noundef zeroext i1 @_ZNK5Timer4UsedEv(ptr noundef nonnull align 8 dereferenceable(72) %16)
  br i1 %17, label %18, label %19

18:                                               ; preds = %12
  store i1 true, ptr %2, align 1
  br label %24

19:                                               ; preds = %12
  br label %20

20:                                               ; preds = %19
  %21 = load i32, ptr %4, align 4
  %22 = add i32 %21, 1
  store i32 %22, ptr %4, align 4
  br label %6, !llvm.loop !8

23:                                               ; preds = %6
  store i1 false, ptr %2, align 1
  br label %24

24:                                               ; preds = %23, %18
  %25 = load i1, ptr %2, align 1
  ret i1 %25
}