; Function Attrs: mustprogress uwtable
define noundef zeroext i1 @_ZNK10TimerGroup4UsedEv(ptr nocapture noundef nonnull readonly align 8 dereferenceable(56) %0) local_unnamed_addr #3 align 2 {
  %2 = getelementptr inbounds nuw i8, ptr %0, i64 8
  %3 = load ptr, ptr %2, align 8
  %4 = load ptr, ptr %0, align 8
  %.not = icmp eq ptr %3, %4
  br i1 %.not, label %._crit_edge, label %.lr.ph

5:                                                ; preds = %.lr.ph
  %6 = add i32 %.06, 1
  %7 = zext i32 %6 to i64
  %8 = load ptr, ptr %2, align 8
  %9 = load ptr, ptr %0, align 8
  %10 = ptrtoint ptr %8 to i64
  %11 = ptrtoint ptr %9 to i64
  %12 = sub i64 %10, %11
  %13 = sdiv exact i64 %12, 72
  %14 = icmp ugt i64 %13, %7
  br i1 %14, label %.lr.ph, label %._crit_edge, !llvm.loop !14

.lr.ph:                                           ; preds = %1, %5
  %15 = phi ptr [ %9, %5 ], [ %4, %1 ]
  %16 = phi i64 [ %7, %5 ], [ 0, %1 ]
  %.06 = phi i32 [ %6, %5 ], [ 0, %1 ]
  %17 = getelementptr inbounds %class.Timer, ptr %15, i64 %16
  %18 = tail call noundef zeroext i1 @_ZNK5Timer4UsedEv(ptr noundef nonnull align 8 dereferenceable(72) %17)
  br i1 %18, label %._crit_edge, label %5

._crit_edge:                                      ; preds = %.lr.ph, %5, %1
  %.lcssa = phi i1 [ false, %1 ], [ %18, %5 ], [ %18, %.lr.ph ]
  ret i1 %.lcssa
}